#include <math.h>
#include <stdio.h>
#include <stdlib.h>
#include <string.h>




int main()
{
	char zfc[50];
	int a,b,c;
	int i,j,k;
	j=0;
		while(scanf("%s", zfc)!=EOF) 
		{
		if(j!=0)
		{printf(",");}
		printf("%d",strlen(zfc));
		j++;
		}
		
		
			
	
	return 0;
}




